target datalayout = "e-m:e-p270:32:32-p271:32:32-p272:64:64-i64:64-i128:128-f80:128-n8:16:32:64-S128"
target triple = "x86_64-pc-linux-gnu"

%struct.subset_d = type { ptr, i32 }
%struct.subset_t = type { %struct.subset_d, %struct.subset_d, %struct.subset_d, %struct.subset_d }

; Function Attrs: nounwind uwtable
define ptr @parse_subset_params(ptr noundef %0) #0 {
  %2 = alloca ptr, align 8
  %3 = alloca ptr, align 8
  %4 = alloca ptr, align 8
  %5 = alloca ptr, align 8
  store ptr %0, ptr %2, align 8
  store ptr null, ptr %3, align 8
  br label %6

6:                                                ; preds = %1
  br label %7

7:                                                ; preds = %6
  %8 = load ptr, ptr %2, align 8
  %9 = load i8, ptr %8, align 1
  %10 = sext i8 %9 to i32
  %11 = icmp eq i32 %10, 34
  br i1 %11, label %12, label %15

12:                                               ; preds = %7
  %13 = load ptr, ptr %2, align 8
  %14 = call ptr @strchr(ptr noundef %13, i32 noundef 34) #15
  store ptr %14, ptr %5, align 8
  br label %17

15:                                               ; preds = %7
  %16 = load ptr, ptr %2, align 8
  store ptr %16, ptr %5, align 8
  br label %17

17:                                               ; preds = %15, %12
  %18 = load ptr, ptr %5, align 8
  %19 = call ptr @strrchr(ptr noundef %18, i32 noundef 91) #15
  store ptr %19, ptr %4, align 8
  %20 = icmp ne ptr %19, null
  br i1 %20, label %21, label %106

21:                                               ; preds = %17
  %22 = load ptr, ptr %4, align 8
  %23 = getelementptr inbounds i8, ptr %22, i32 1
  store ptr %23, ptr %4, align 8
  store i8 0, ptr %22, align 1
  %24 = call noalias ptr @calloc(i64 noundef 1, i64 noundef 64) #14
  store ptr %24, ptr %3, align 8
  %25 = load ptr, ptr %4, align 8
  %26 = load ptr, ptr %3, align 8
  %27 = getelementptr inbounds %struct.subset_t, ptr %26, i32 0, i32 0
  call void @parse_hsize_list(ptr noundef %25, ptr noundef %27)
  br label %28

28:                                               ; preds = %40, %21
  %29 = load ptr, ptr %4, align 8
  %30 = load i8, ptr %29, align 1
  %31 = sext i8 %30 to i32
  %32 = icmp ne i32 %31, 0
  br i1 %32, label %33, label %38

33:                                               ; preds = %28
  %34 = load ptr, ptr %4, align 8
  %35 = load i8, ptr %34, align 1
  %36 = sext i8 %35 to i32
  %37 = icmp ne i32 %36, 59
  br label %38

38:                                               ; preds = %33, %28
  %39 = phi i1 [ false, %28 ], [ %37, %33 ]
  br i1 %39, label %40, label %43

40:                                               ; preds = %38
  %41 = load ptr, ptr %4, align 8
  %42 = getelementptr inbounds i8, ptr %41, i32 1
  store ptr %42, ptr %4, align 8
  br label %28

43:                                               ; preds = %38
  %44 = load ptr, ptr %4, align 8
  %45 = load i8, ptr %44, align 1
  %46 = icmp ne i8 %45, 0
  br i1 %46, label %47, label %50

47:                                               ; preds = %43
  %48 = load ptr, ptr %4, align 8
  %49 = getelementptr inbounds i8, ptr %48, i32 1
  store ptr %49, ptr %4, align 8
  br label %50

50:                                               ; preds = %47, %43
  %51 = load ptr, ptr %4, align 8
  %52 = load ptr, ptr %3, align 8
  %53 = getelementptr inbounds %struct.subset_t, ptr %52, i32 0, i32 1
  call void @parse_hsize_list(ptr noundef %51, ptr noundef %53)
  br label %54

54:                                               ; preds = %66, %50
  %55 = load ptr, ptr %4, align 8
  %56 = load i8, ptr %55, align 1
  %57 = sext i8 %56 to i32
  %58 = icmp ne i32 %57, 0
  br i1 %58, label %59, label %64

59:                                               ; preds = %54
  %60 = load ptr, ptr %4, align 8
  %61 = load i8, ptr %60, align 1
  %62 = sext i8 %61 to i32
  %63 = icmp ne i32 %62, 59
  br label %64

64:                                               ; preds = %59, %54
  %65 = phi i1 [ false, %54 ], [ %63, %59 ]
  br i1 %65, label %66, label %69

66:                                               ; preds = %64
  %67 = load ptr, ptr %4, align 8
  %68 = getelementptr inbounds i8, ptr %67, i32 1
  store ptr %68, ptr %4, align 8
  br label %54

69:                                               ; preds = %64
  %70 = load ptr, ptr %4, align 8
  %71 = load i8, ptr %70, align 1
  %72 = icmp ne i8 %71, 0
  br i1 %72, label %73, label %76

73:                                               ; preds = %69
  %74 = load ptr, ptr %4, align 8
  %75 = getelementptr inbounds i8, ptr %74, i32 1
  store ptr %75, ptr %4, align 8
  br label %76

76:                                               ; preds = %73, %69
  %77 = load ptr, ptr %4, align 8
  %78 = load ptr, ptr %3, align 8
  %79 = getelementptr inbounds %struct.subset_t, ptr %78, i32 0, i32 2
  call void @parse_hsize_list(ptr noundef %77, ptr noundef %79)
  br label %80

80:                                               ; preds = %92, %76
  %81 = load ptr, ptr %4, align 8
  %82 = load i8, ptr %81, align 1
  %83 = sext i8 %82 to i32
  %84 = icmp ne i32 %83, 0
  br i1 %84, label %85, label %90

85:                                               ; preds = %80
  %86 = load ptr, ptr %4, align 8
  %87 = load i8, ptr %86, align 1
  %88 = sext i8 %87 to i32
  %89 = icmp ne i32 %88, 59
  br label %90

90:                                               ; preds = %85, %80
  %91 = phi i1 [ false, %80 ], [ %89, %85 ]
  br i1 %91, label %92, label %95

92:                                               ; preds = %90
  %93 = load ptr, ptr %4, align 8
  %94 = getelementptr inbounds i8, ptr %93, i32 1
  store ptr %94, ptr %4, align 8
  br label %80

95:                                               ; preds = %90
  %96 = load ptr, ptr %4, align 8
  %97 = load i8, ptr %96, align 1
  %98 = icmp ne i8 %97, 0
  br i1 %98, label %99, label %102

99:                                               ; preds = %95
  %100 = load ptr, ptr %4, align 8
  %101 = getelementptr inbounds i8, ptr %100, i32 1
  store ptr %101, ptr %4, align 8
  br label %102

102:                                              ; preds = %99, %95
  %103 = load ptr, ptr %4, align 8
  %104 = load ptr, ptr %3, align 8
  %105 = getelementptr inbounds %struct.subset_t, ptr %104, i32 0, i32 3
  call void @parse_hsize_list(ptr noundef %103, ptr noundef %105)
  br label %106

106:                                              ; preds = %102, %17
  br label %107

107:                                              ; preds = %106
  br label %108

108:                                              ; preds = %107
  %109 = load ptr, ptr %3, align 8
  ret ptr %109
}