; Function Attrs: nounwind uwtable
define noalias noundef ptr @parse_subset_params(ptr noundef %0) local_unnamed_addr #4 {
  %2 = load i8, ptr %0, align 1
  %3 = icmp eq i8 %2, 34
  br i1 %3, label %4, label %6

4:                                                ; preds = %1
  %5 = tail call ptr @strchr(ptr noundef nonnull dereferenceable(1) %0, i32 noundef 34) #27
  br label %6

6:                                                ; preds = %1, %4
  %.0 = phi ptr [ %5, %4 ], [ %0, %1 ]
  %7 = tail call ptr @strrchr(ptr noundef nonnull dereferenceable(1) %.0, i32 noundef 91) #27
  %.not = icmp eq ptr %7, null
  br i1 %.not, label %26, label %8

8:                                                ; preds = %6
  %9 = getelementptr inbounds nuw i8, ptr %7, i64 1
  store i8 0, ptr %7, align 1
  %10 = tail call noalias dereferenceable_or_null(64) ptr @calloc(i64 noundef 1, i64 noundef 64) #25
  tail call void @parse_hsize_list(ptr noundef nonnull %9, ptr noundef %10)
  br label %11

11:                                               ; preds = %13, %8
  %.033 = phi ptr [ %9, %8 ], [ %14, %13 ]
  %12 = load i8, ptr %.033, align 1
  switch i8 %12, label %13 [
    i8 0, label %.critedge
    i8 59, label %.critedge
  ]

13:                                               ; preds = %11
  %14 = getelementptr inbounds nuw i8, ptr %.033, i64 1
  br label %11

.critedge:                                        ; preds = %11, %11
  %.not41 = icmp ne i8 %12, 0
  %spec.select.idx = zext i1 %.not41 to i64
  %spec.select = getelementptr inbounds nuw i8, ptr %.033, i64 %spec.select.idx
  %15 = getelementptr inbounds nuw i8, ptr %10, i64 16
  tail call void @parse_hsize_list(ptr noundef nonnull %spec.select, ptr noundef nonnull %15)
  br label %16

16:                                               ; preds = %18, %.critedge
  %.2 = phi ptr [ %spec.select, %.critedge ], [ %19, %18 ]
  %17 = load i8, ptr %.2, align 1
  switch i8 %17, label %18 [
    i8 0, label %.critedge2
    i8 59, label %.critedge2
  ]

18:                                               ; preds = %16
  %19 = getelementptr inbounds nuw i8, ptr %.2, i64 1
  br label %16

.critedge2:                                       ; preds = %16, %16
  %.not44 = icmp ne i8 %17, 0
  %spec.select48.idx = zext i1 %.not44 to i64
  %spec.select48 = getelementptr inbounds nuw i8, ptr %.2, i64 %spec.select48.idx
  %20 = getelementptr inbounds nuw i8, ptr %10, i64 32
  tail call void @parse_hsize_list(ptr noundef nonnull %spec.select48, ptr noundef nonnull %20)
  br label %21

21:                                               ; preds = %23, %.critedge2
  %.4 = phi ptr [ %spec.select48, %.critedge2 ], [ %24, %23 ]
  %22 = load i8, ptr %.4, align 1
  switch i8 %22, label %23 [
    i8 0, label %.critedge4
    i8 59, label %.critedge4
  ]

23:                                               ; preds = %21
  %24 = getelementptr inbounds nuw i8, ptr %.4, i64 1
  br label %21

.critedge4:                                       ; preds = %21, %21
  %.not47 = icmp ne i8 %22, 0
  %spec.select49.idx = zext i1 %.not47 to i64
  %spec.select49 = getelementptr inbounds nuw i8, ptr %.4, i64 %spec.select49.idx
  %25 = getelementptr inbounds nuw i8, ptr %10, i64 48
  tail call void @parse_hsize_list(ptr noundef nonnull %spec.select49, ptr noundef nonnull %25)
  br label %26

26:                                               ; preds = %.critedge4, %6
  %.034 = phi ptr [ %10, %.critedge4 ], [ null, %6 ]
  ret ptr %.034
}